; Function Attrs: mustprogress nofree norecurse nosync nounwind memory(readwrite, inaccessiblemem: none) uwtable
define dso_local void @_ZN23btDiscreteDynamicsWorld12removeActionEP17btActionInterface(ptr nocapture noundef nonnull align 8 dereferenceable(508) %this, ptr noundef readnone %action) unnamed_addr #5 align 2 {
entry:
  %m_size.i.i.i = getelementptr inbounds i8, ptr %this, i64 436
  %0 = load i32, ptr %m_size.i.i.i, align 4
  %cmp5.i.i = icmp sgt i32 %0, 0
  br i1 %cmp5.i.i, label %for.body.lr.ph.i.i, label %_ZN20btAlignedObjectArrayIP17btActionInterfaceE6removeERKS1_.exit

for.body.lr.ph.i.i:                               ; preds = %entry
  %m_data.i.i = getelementptr inbounds i8, ptr %this, i64 448
  %1 = load ptr, ptr %m_data.i.i, align 8
  %wide.trip.count.i.i = zext nneg i32 %0 to i64
  br label %for.body.i.i

for.body.i.i:                                     ; preds = %for.inc.i.i, %for.body.lr.ph.i.i
  %indvars.iv.i.i = phi i64 [ 0, %for.body.lr.ph.i.i ], [ %indvars.iv.next.i.i, %for.inc.i.i ]
  %arrayidx.i.i = getelementptr inbounds ptr, ptr %1, i64 %indvars.iv.i.i
  %2 = load ptr, ptr %arrayidx.i.i, align 8
  %cmp3.i.i = icmp eq ptr %2, %action
  br i1 %cmp3.i.i, label %_ZNK20btAlignedObjectArrayIP17btActionInterfaceE16findLinearSearchERKS1_.exit.i, label %for.inc.i.i

for.inc.i.i:                                      ; preds = %for.body.i.i
  %indvars.iv.next.i.i = add nuw nsw i64 %indvars.iv.i.i, 1
  %exitcond.not.i.i = icmp eq i64 %indvars.iv.next.i.i, %wide.trip.count.i.i
  br i1 %exitcond.not.i.i, label %_ZN20btAlignedObjectArrayIP17btActionInterfaceE6removeERKS1_.exit, label %for.body.i.i, !llvm.loop !22

_ZNK20btAlignedObjectArrayIP17btActionInterfaceE16findLinearSearchERKS1_.exit.i: ; preds = %for.body.i.i
  %3 = trunc i64 %indvars.iv.i.i to i32
  %cmp.i.i = icmp sgt i32 %0, %3
  br i1 %cmp.i.i, label %if.then.i.i, label %_ZN20btAlignedObjectArrayIP17btActionInterfaceE6removeERKS1_.exit

if.then.i.i:                                      ; preds = %_ZNK20btAlignedObjectArrayIP17btActionInterfaceE16findLinearSearchERKS1_.exit.i
  %sub.i.i = add nsw i32 %0, -1
  %sext.i = shl i64 %indvars.iv.i.i, 32
  %idxprom.i.i.i = ashr exact i64 %sext.i, 32
  %arrayidx.i.i.i = getelementptr inbounds ptr, ptr %1, i64 %idxprom.i.i.i
  %4 = load ptr, ptr %arrayidx.i.i.i, align 8
  %idxprom3.i.i.i = sext i32 %sub.i.i to i64
  %arrayidx4.i.i.i = getelementptr inbounds ptr, ptr %1, i64 %idxprom3.i.i.i
  %5 = load ptr, ptr %arrayidx4.i.i.i, align 8
  store ptr %5, ptr %arrayidx.i.i.i, align 8
  %6 = load ptr, ptr %m_data.i.i, align 8
  %arrayidx10.i.i.i = getelementptr inbounds ptr, ptr %6, i64 %idxprom3.i.i.i
  store ptr %4, ptr %arrayidx10.i.i.i, align 8
  %7 = load i32, ptr %m_size.i.i.i, align 4
  %dec.i.i.i = add nsw i32 %7, -1
  store i32 %dec.i.i.i, ptr %m_size.i.i.i, align 4
  br label %_ZN20btAlignedObjectArrayIP17btActionInterfaceE6removeERKS1_.exit

_ZN20btAlignedObjectArrayIP17btActionInterfaceE6removeERKS1_.exit: ; preds = %for.inc.i.i, %entry, %_ZNK20btAlignedObjectArrayIP17btActionInterfaceE16findLinearSearchERKS1_.exit.i, %if.then.i.i
  ret void
}